target datalayout = "e-m:e-p270:32:32-p271:32:32-p272:64:64-i64:64-i128:128-f80:128-n8:16:32:64-S128"
target triple = "x86_64-pc-linux-gnu"

@.str.37 = private unnamed_addr constant [38 x i8] c"Unrecognized unit type for oFFs chunk\00", align 1

; Function Attrs: nounwind uwtable
define void @png_write_oFFs(ptr noalias noundef %0, i32 noundef %1, i32 noundef %2, i32 noundef %3) #0 {
  %5 = alloca ptr, align 8
  %6 = alloca i32, align 4
  %7 = alloca i32, align 4
  %8 = alloca i32, align 4
  %9 = alloca [9 x i8], align 1
  store ptr %0, ptr %5, align 8, !tbaa !11
  store i32 %1, ptr %6, align 4, !tbaa !8
  store i32 %2, ptr %7, align 4, !tbaa !8
  store i32 %3, ptr %8, align 4, !tbaa !8
  call void @llvm.lifetime.start.p0(i64 9, ptr %9) #7
  %10 = load i32, ptr %8, align 4, !tbaa !8
  %11 = icmp sge i32 %10, 2
  br i1 %11, label %12, label %14

12:                                               ; preds = %4
  %13 = load ptr, ptr %5, align 8, !tbaa !11
  call void @png_warning(ptr noundef %13, ptr noundef @.str.37)
  br label %14

14:                                               ; preds = %12, %4
  %15 = getelementptr inbounds [9 x i8], ptr %9, i64 0, i64 0
  %16 = load i32, ptr %6, align 4, !tbaa !8
  call void @png_save_int_32(ptr noundef %15, i32 noundef %16)
  %17 = getelementptr inbounds [9 x i8], ptr %9, i64 0, i64 0
  %18 = getelementptr inbounds i8, ptr %17, i64 4
  %19 = load i32, ptr %7, align 4, !tbaa !8
  call void @png_save_int_32(ptr noundef %18, i32 noundef %19)
  %20 = load i32, ptr %8, align 4, !tbaa !8
  %21 = trunc i32 %20 to i8
  %22 = getelementptr inbounds [9 x i8], ptr %9, i64 0, i64 8
  store i8 %21, ptr %22, align 1, !tbaa !10
  %23 = load ptr, ptr %5, align 8, !tbaa !11
  %24 = getelementptr inbounds [9 x i8], ptr %9, i64 0, i64 0
  call void @png_write_complete_chunk(ptr noundef %23, i32 noundef 1866876531, ptr noundef %24, i64 noundef 9)
  call void @llvm.lifetime.end.p0(i64 9, ptr %9) #7
  ret void
}