; Function Attrs: nounwind uwtable
define void @png_write_oFFs(ptr noalias noundef %0, i32 noundef %1, i32 noundef %2, i32 noundef %3) local_unnamed_addr #1 {
  %5 = alloca [9 x i8], align 1
  call void @llvm.lifetime.start.p0(i64 9, ptr nonnull %5) #12
  %6 = icmp sgt i32 %3, 1
  br i1 %6, label %7, label %8

7:                                                ; preds = %4
  tail call void @png_warning(ptr noundef %0, ptr noundef nonnull @.str.37) #12
  br label %8

8:                                                ; preds = %7, %4
  call void @png_save_int_32(ptr noundef nonnull %5, i32 noundef %1) #12
  %9 = getelementptr inbounds nuw i8, ptr %5, i64 4
  call void @png_save_int_32(ptr noundef nonnull %9, i32 noundef %2) #12
  %10 = trunc i32 %3 to i8
  %11 = getelementptr inbounds nuw i8, ptr %5, i64 8
  store i8 %10, ptr %11, align 1, !tbaa !3
  call fastcc void @png_write_complete_chunk(ptr noundef %0, i32 noundef 1866876531, ptr noundef nonnull %5, i64 noundef 9)
  call void @llvm.lifetime.end.p0(i64 9, ptr nonnull %5) #12
  ret void
}